target datalayout = "e-m:e-p270:32:32-p271:32:32-p272:64:64-i64:64-i128:128-f80:128-n8:16:32:64-S128"
target triple = "x86_64-pc-linux-gnu"

; Function Attrs: mustprogress nounwind uwtable
define hidden noundef i32 @_ZN6google8protobuf15strto32_adaptorEPKcPPci(ptr noundef %0, ptr noundef %1, i32 noundef %2) #6 {
  %4 = alloca i32, align 4
  %5 = alloca ptr, align 8
  %6 = alloca ptr, align 8
  %7 = alloca i32, align 4
  %8 = alloca i32, align 4
  %9 = alloca i64, align 8
  %10 = alloca i32, align 4
  store ptr %0, ptr %5, align 8, !tbaa !8
  store ptr %1, ptr %6, align 8, !tbaa !49
  store i32 %2, ptr %7, align 4, !tbaa !15
  call void @llvm.lifetime.start.p0(i64 4, ptr %8) #3
  %11 = call ptr @__errno_location() #23
  %12 = load i32, ptr %11, align 4, !tbaa !15
  store i32 %12, ptr %8, align 4, !tbaa !15
  %13 = call ptr @__errno_location() #23
  store i32 0, ptr %13, align 4, !tbaa !15
  call void @llvm.lifetime.start.p0(i64 8, ptr %9) #3
  %14 = load ptr, ptr %5, align 8, !tbaa !8
  %15 = load ptr, ptr %6, align 8, !tbaa !49
  %16 = load i32, ptr %7, align 4, !tbaa !15
  %17 = call i64 @strtol(ptr noundef %14, ptr noundef %15, i32 noundef %16) #3
  store i64 %17, ptr %9, align 8, !tbaa !13
  %18 = call ptr @__errno_location() #23
  %19 = load i32, ptr %18, align 4, !tbaa !15
  %20 = icmp eq i32 %19, 34
  br i1 %20, label %21, label %25

21:                                               ; preds = %3
  %22 = load i64, ptr %9, align 8, !tbaa !13
  %23 = icmp eq i64 %22, -9223372036854775808
  br i1 %23, label %24, label %25

24:                                               ; preds = %21
  store i32 -2147483648, ptr %4, align 4
  store i32 1, ptr %10, align 4
  br label %64

25:                                               ; preds = %21, %3
  %26 = call ptr @__errno_location() #23
  %27 = load i32, ptr %26, align 4, !tbaa !15
  %28 = icmp eq i32 %27, 34
  br i1 %28, label %29, label %33

29:                                               ; preds = %25
  %30 = load i64, ptr %9, align 8, !tbaa !13
  %31 = icmp eq i64 %30, 9223372036854775807
  br i1 %31, label %32, label %33

32:                                               ; preds = %29
  store i32 2147483647, ptr %4, align 4
  store i32 1, ptr %10, align 4
  br label %64

33:                                               ; preds = %29, %25
  %34 = call ptr @__errno_location() #23
  %35 = load i32, ptr %34, align 4, !tbaa !15
  %36 = icmp eq i32 %35, 0
  br i1 %36, label %37, label %42

37:                                               ; preds = %33
  %38 = load i64, ptr %9, align 8, !tbaa !13
  %39 = icmp slt i64 %38, -2147483648
  br i1 %39, label %40, label %42

40:                                               ; preds = %37
  %41 = call ptr @__errno_location() #23
  store i32 34, ptr %41, align 4, !tbaa !15
  store i32 -2147483648, ptr %4, align 4
  store i32 1, ptr %10, align 4
  br label %64

42:                                               ; preds = %37, %33
  %43 = call ptr @__errno_location() #23
  %44 = load i32, ptr %43, align 4, !tbaa !15
  %45 = icmp eq i32 %44, 0
  br i1 %45, label %46, label %51

46:                                               ; preds = %42
  %47 = load i64, ptr %9, align 8, !tbaa !13
  %48 = icmp sgt i64 %47, 2147483647
  br i1 %48, label %49, label %51

49:                                               ; preds = %46
  %50 = call ptr @__errno_location() #23
  store i32 34, ptr %50, align 4, !tbaa !15
  store i32 2147483647, ptr %4, align 4
  store i32 1, ptr %10, align 4
  br label %64

51:                                               ; preds = %46, %42
  br label %52

52:                                               ; preds = %51
  br label %53

53:                                               ; preds = %52
  br label %54

54:                                               ; preds = %53
  %55 = call ptr @__errno_location() #23
  %56 = load i32, ptr %55, align 4, !tbaa !15
  %57 = icmp eq i32 %56, 0
  br i1 %57, label %58, label %61

58:                                               ; preds = %54
  %59 = load i32, ptr %8, align 4, !tbaa !15
  %60 = call ptr @__errno_location() #23
  store i32 %59, ptr %60, align 4, !tbaa !15
  br label %61

61:                                               ; preds = %58, %54
  %62 = load i64, ptr %9, align 8, !tbaa !13
  %63 = trunc i64 %62 to i32
  store i32 %63, ptr %4, align 4
  store i32 1, ptr %10, align 4
  br label %64

64:                                               ; preds = %61, %49, %40, %32, %24
  call void @llvm.lifetime.end.p0(i64 8, ptr %9) #3
  call void @llvm.lifetime.end.p0(i64 4, ptr %8) #3
  %65 = load i32, ptr %4, align 4
  ret i32 %65
}