; Function Attrs: mustprogress nofree nounwind willreturn uwtable
define hidden noundef i32 @_ZN6google8protobuf15strto32_adaptorEPKcPPci(ptr noundef %0, ptr noundef captures(none) %1, i32 noundef %2) local_unnamed_addr #13 {
  %4 = tail call ptr @__errno_location() #34
  %5 = load i32, ptr %4, align 4, !tbaa !65
  store i32 0, ptr %4, align 4, !tbaa !65
  %6 = tail call i64 @strtol(ptr noundef %0, ptr noundef %1, i32 noundef %2) #31
  %7 = load i32, ptr %4, align 4, !tbaa !65
  %8 = icmp eq i32 %7, 34
  %9 = icmp eq i64 %6, -9223372036854775808
  %or.cond = select i1 %8, i1 %9, i1 false
  br i1 %or.cond, label %23, label %10

10:                                               ; preds = %3
  %11 = icmp eq i64 %6, 9223372036854775807
  %or.cond3 = select i1 %8, i1 %11, i1 false
  br i1 %or.cond3, label %23, label %12

12:                                               ; preds = %10
  %13 = icmp eq i32 %7, 0
  %14 = icmp slt i64 %6, -2147483648
  %or.cond5 = select i1 %13, i1 %14, i1 false
  br i1 %or.cond5, label %15, label %16

15:                                               ; preds = %12
  store i32 34, ptr %4, align 4, !tbaa !65
  br label %23

16:                                               ; preds = %12
  %17 = icmp sgt i64 %6, 2147483647
  %or.cond7 = select i1 %13, i1 %17, i1 false
  br i1 %or.cond7, label %18, label %19

18:                                               ; preds = %16
  store i32 34, ptr %4, align 4, !tbaa !65
  br label %23

19:                                               ; preds = %16
  br i1 %13, label %20, label %21

20:                                               ; preds = %19
  store i32 %5, ptr %4, align 4, !tbaa !65
  br label %21

21:                                               ; preds = %20, %19
  %22 = trunc i64 %6 to i32
  br label %23

23:                                               ; preds = %10, %3, %21, %18, %15
  %.0 = phi i32 [ -2147483648, %15 ], [ 2147483647, %18 ], [ %22, %21 ], [ -2147483648, %3 ], [ 2147483647, %10 ]
  ret i32 %.0
}